target datalayout = "e-m:e-p270:32:32-p271:32:32-p272:64:64-i64:64-i128:128-f80:128-n8:16:32:64-S128"
target triple = "x86_64-pc-linux-gnu"

%"class.std::__cxx11::basic_string" = type { %"struct.std::__cxx11::basic_string<char>::_Alloc_hider", i64, %union.anon }
%"struct.std::__cxx11::basic_string<char>::_Alloc_hider" = type { ptr }
%union.anon = type { i64, [8 x i8] }
%"class.mu::ParserError" = type { %"class.std::__cxx11::basic_string", %"class.std::__cxx11::basic_string", %"class.std::__cxx11::basic_string", i32, i32, ptr }
%class.ParserTag = type { ptr, %"class.mu::ParserError", ptr, i8, i32 }

@_ZTIN2mu11ParserErrorE = linkonce_odr constant { ptr, ptr } { ptr getelementptr inbounds (ptr, ptr @_ZTVN10__cxxabiv117__class_type_infoE, i64 2), ptr @_ZTSN2mu11ParserErrorE }, comdat, align 8

; Function Attrs: inlinehint mustprogress nounwind uwtable
define linkonce_odr noundef ptr @_Z8AsParserPv(ptr noundef %0) #10 comdat {
  %2 = alloca ptr, align 8
  store ptr %0, ptr %2, align 8, !tbaa !32
  %3 = load ptr, ptr %2, align 8, !tbaa !32
  %4 = getelementptr inbounds nuw %class.ParserTag, ptr %3, i32 0, i32 0
  %5 = load ptr, ptr %4, align 8, !tbaa !47
  ret ptr %5
}

; Function Attrs: mustprogress uwtable
define void @mupEvalBulk(ptr noundef %0, ptr noundef %1, i32 noundef %2) #6 personality ptr @__gxx_personality_v0 {
  %4 = alloca ptr, align 8
  %5 = alloca ptr, align 8
  %6 = alloca i32, align 4
  %7 = alloca ptr, align 8
  %8 = alloca ptr, align 8
  %9 = alloca i32, align 4
  %10 = alloca ptr, align 8
  %11 = alloca %"class.mu::ParserError", align 8
  %12 = alloca ptr, align 8
  %13 = alloca ptr, align 8
  store ptr %0, ptr %4, align 8, !tbaa !32
  store ptr %1, ptr %5, align 8, !tbaa !54
  store i32 %2, ptr %6, align 4, !tbaa !48
  call void @llvm.lifetime.start.p0(i64 8, ptr %7) #3
  %14 = load ptr, ptr %4, align 8, !tbaa !32
  %15 = call noundef ptr @_Z8AsParserPv(ptr noundef %14)
  store ptr %15, ptr %7, align 8, !tbaa !33
  %16 = load ptr, ptr %7, align 8, !tbaa !33
  %17 = load ptr, ptr %5, align 8, !tbaa !54
  %18 = load i32, ptr %6, align 4, !tbaa !48
  invoke void @_ZN2mu10ParserBase4EvalEPdi(ptr noundef nonnull align 8 dereferenceable(596) %16, ptr noundef %17, i32 noundef %18)
          to label %19 unwind label %20

19:                                               ; preds = %3
  call void @llvm.lifetime.end.p0(i64 8, ptr %7) #3
  br label %91

20:                                               ; preds = %3
  %21 = landingpad { ptr, i32 }
          catch ptr @_ZTIN2mu11ParserErrorE
          catch ptr null
  %22 = extractvalue { ptr, i32 } %21, 0
  store ptr %22, ptr %8, align 8
  %23 = extractvalue { ptr, i32 } %21, 1
  store i32 %23, ptr %9, align 4
  call void @llvm.lifetime.end.p0(i64 8, ptr %7) #3
  br label %24

24:                                               ; preds = %20
  %25 = load i32, ptr %9, align 4
  %26 = call i32 @llvm.eh.typeid.for.p0(ptr @_ZTIN2mu11ParserErrorE) #3
  %27 = icmp eq i32 %25, %26
  br i1 %27, label %28, label %49

28:                                               ; preds = %24
  call void @llvm.lifetime.start.p0(i64 8, ptr %12) #3
  %29 = load ptr, ptr %8, align 8
  %30 = call ptr @__cxa_begin_catch(ptr %29) #3
  store ptr %30, ptr %12, align 8
  call void @llvm.lifetime.start.p0(i64 8, ptr %13) #3
  %31 = load ptr, ptr %4, align 8, !tbaa !32
  store ptr %31, ptr %13, align 8, !tbaa !35
  %32 = load ptr, ptr %12, align 8, !tbaa !37
  %33 = load ptr, ptr %13, align 8, !tbaa !35
  %34 = getelementptr inbounds nuw %class.ParserTag, ptr %33, i32 0, i32 1
  %35 = invoke noundef nonnull align 8 dereferenceable(112) ptr @_ZN2mu11ParserErroraSERKS0_(ptr noundef nonnull align 8 dereferenceable(112) %34, ptr noundef nonnull align 8 dereferenceable(112) %32)
          to label %36 unwind label %86

36:                                               ; preds = %28
  %37 = load ptr, ptr %13, align 8, !tbaa !35
  %38 = getelementptr inbounds nuw %class.ParserTag, ptr %37, i32 0, i32 3
  store i8 1, ptr %38, align 8, !tbaa !39
  %39 = load ptr, ptr %13, align 8, !tbaa !35
  %40 = getelementptr inbounds nuw %class.ParserTag, ptr %39, i32 0, i32 2
  %41 = load ptr, ptr %40, align 8, !tbaa !46
  %42 = icmp ne ptr %41, null
  br i1 %42, label %43, label %90

43:                                               ; preds = %36
  %44 = load ptr, ptr %13, align 8, !tbaa !35
  %45 = getelementptr inbounds nuw %class.ParserTag, ptr %44, i32 0, i32 2
  %46 = load ptr, ptr %45, align 8, !tbaa !46
  %47 = load ptr, ptr %4, align 8, !tbaa !32
  invoke void %46(ptr noundef %47)
          to label %48 unwind label %86

48:                                               ; preds = %43
  br label %90

49:                                               ; preds = %24
  %50 = load ptr, ptr %8, align 8
  %51 = call ptr @__cxa_begin_catch(ptr %50) #3
  call void @llvm.lifetime.start.p0(i64 8, ptr %10) #3
  %52 = load ptr, ptr %4, align 8, !tbaa !32
  store ptr %52, ptr %10, align 8, !tbaa !35
  call void @llvm.lifetime.start.p0(i64 112, ptr %11) #3
  invoke void @_ZN2mu11ParserErrorC1ENS_11EErrorCodesE(ptr noundef nonnull align 8 dereferenceable(112) %11, i32 noundef 39)
          to label %53 unwind label %70

53:                                               ; preds = %49
  %54 = load ptr, ptr %10, align 8, !tbaa !35
  %55 = getelementptr inbounds nuw %class.ParserTag, ptr %54, i32 0, i32 1
  %56 = invoke noundef nonnull align 8 dereferenceable(112) ptr @_ZN2mu11ParserErroraSERKS0_(ptr noundef nonnull align 8 dereferenceable(112) %55, ptr noundef nonnull align 8 dereferenceable(112) %11)
          to label %57 unwind label %74

57:                                               ; preds = %53
  call void @_ZN2mu11ParserErrorD1Ev(ptr noundef nonnull align 8 dereferenceable(112) %11) #3
  call void @llvm.lifetime.end.p0(i64 112, ptr %11) #3
  %58 = load ptr, ptr %10, align 8, !tbaa !35
  %59 = getelementptr inbounds nuw %class.ParserTag, ptr %58, i32 0, i32 3
  store i8 1, ptr %59, align 8, !tbaa !39
  %60 = load ptr, ptr %10, align 8, !tbaa !35
  %61 = getelementptr inbounds nuw %class.ParserTag, ptr %60, i32 0, i32 2
  %62 = load ptr, ptr %61, align 8, !tbaa !46
  %63 = icmp ne ptr %62, null
  br i1 %63, label %64, label %83

64:                                               ; preds = %57
  %65 = load ptr, ptr %10, align 8, !tbaa !35
  %66 = getelementptr inbounds nuw %class.ParserTag, ptr %65, i32 0, i32 2
  %67 = load ptr, ptr %66, align 8, !tbaa !46
  %68 = load ptr, ptr %4, align 8, !tbaa !32
  invoke void %67(ptr noundef %68)
          to label %69 unwind label %79

69:                                               ; preds = %64
  br label %83

70:                                               ; preds = %49
  %71 = landingpad { ptr, i32 }
          cleanup
  %72 = extractvalue { ptr, i32 } %71, 0
  store ptr %72, ptr %8, align 8
  %73 = extractvalue { ptr, i32 } %71, 1
  store i32 %73, ptr %9, align 4
  br label %78

74:                                               ; preds = %53
  %75 = landingpad { ptr, i32 }
          cleanup
  %76 = extractvalue { ptr, i32 } %75, 0
  store ptr %76, ptr %8, align 8
  %77 = extractvalue { ptr, i32 } %75, 1
  store i32 %77, ptr %9, align 4
  call void @_ZN2mu11ParserErrorD1Ev(ptr noundef nonnull align 8 dereferenceable(112) %11) #3
  br label %78

78:                                               ; preds = %74, %70
  call void @llvm.lifetime.end.p0(i64 112, ptr %11) #3
  br label %84

79:                                               ; preds = %64
  %80 = landingpad { ptr, i32 }
          cleanup
  %81 = extractvalue { ptr, i32 } %80, 0
  store ptr %81, ptr %8, align 8
  %82 = extractvalue { ptr, i32 } %80, 1
  store i32 %82, ptr %9, align 4
  br label %84

83:                                               ; preds = %69, %57
  call void @llvm.lifetime.end.p0(i64 8, ptr %10) #3
  call void @__cxa_end_catch()
  br label %91

84:                                               ; preds = %79, %78
  call void @llvm.lifetime.end.p0(i64 8, ptr %10) #3
  invoke void @__cxa_end_catch()
          to label %85 unwind label %98

85:                                               ; preds = %84
  br label %93

86:                                               ; preds = %43, %28
  %87 = landingpad { ptr, i32 }
          cleanup
  %88 = extractvalue { ptr, i32 } %87, 0
  store ptr %88, ptr %8, align 8
  %89 = extractvalue { ptr, i32 } %87, 1
  store i32 %89, ptr %9, align 4
  call void @llvm.lifetime.end.p0(i64 8, ptr %13) #3
  invoke void @__cxa_end_catch()
          to label %92 unwind label %98

90:                                               ; preds = %48, %36
  call void @llvm.lifetime.end.p0(i64 8, ptr %13) #3
  call void @__cxa_end_catch()
  call void @llvm.lifetime.end.p0(i64 8, ptr %12) #3
  br label %91

91:                                               ; preds = %90, %83, %19
  ret void

92:                                               ; preds = %86
  call void @llvm.lifetime.end.p0(i64 8, ptr %12) #3
  br label %93

93:                                               ; preds = %92, %85
  %94 = load ptr, ptr %8, align 8
  %95 = load i32, ptr %9, align 4
  %96 = insertvalue { ptr, i32 } poison, ptr %94, 0
  %97 = insertvalue { ptr, i32 } %96, i32 %95, 1
  resume { ptr, i32 } %97

98:                                               ; preds = %86, %84
  %99 = landingpad { ptr, i32 }
          catch ptr null
  %100 = extractvalue { ptr, i32 } %99, 0
  call void @__clang_call_terminate(ptr %100) #19
  unreachable
}