; Function Attrs: mustprogress uwtable
define void @mupEvalBulk(ptr noundef %0, ptr noundef %1, i32 noundef %2) local_unnamed_addr #11 personality ptr @__gxx_personality_v0 {
  %4 = alloca %"class.mu::ParserError", align 8
  %5 = load ptr, ptr %0, align 8, !tbaa !4
  invoke void @_ZN2mu10ParserBase4EvalEPdi(ptr noundef nonnull align 8 dereferenceable(596) %5, ptr noundef %1, i32 noundef %2)
          to label %42 unwind label %6

6:                                                ; preds = %3
  %7 = landingpad { ptr, i32 }
          catch ptr @_ZTIN2mu11ParserErrorE
          catch ptr null
  %8 = extractvalue { ptr, i32 } %7, 0
  %9 = extractvalue { ptr, i32 } %7, 1
  %10 = tail call i32 @llvm.eh.typeid.for.p0(ptr nonnull @_ZTIN2mu11ParserErrorE) #23
  %11 = icmp eq i32 %9, %10
  %12 = tail call ptr @__cxa_begin_catch(ptr %8) #23
  br i1 %11, label %13, label %21

13:                                               ; preds = %6
  %14 = getelementptr inbounds nuw i8, ptr %0, i64 8
  %15 = invoke noundef nonnull align 8 dereferenceable(112) ptr @_ZN2mu11ParserErroraSERKS0_(ptr noundef nonnull align 8 dereferenceable(112) %14, ptr noundef nonnull align 8 dereferenceable(112) %12)
          to label %16 unwind label %39

16:                                               ; preds = %13
  %17 = getelementptr inbounds nuw i8, ptr %0, i64 128
  store i8 1, ptr %17, align 8, !tbaa !19
  %18 = getelementptr inbounds nuw i8, ptr %0, i64 120
  %19 = load ptr, ptr %18, align 8, !tbaa !20
  %.not29 = icmp eq ptr %19, null
  br i1 %.not29, label %41, label %20

20:                                               ; preds = %16
  invoke void %19(ptr noundef nonnull %0)
          to label %41 unwind label %39

21:                                               ; preds = %6
  call void @llvm.lifetime.start.p0(i64 112, ptr nonnull %4) #23
  invoke void @_ZN2mu11ParserErrorC1ENS_11EErrorCodesE(ptr noundef nonnull align 8 dereferenceable(112) %4, i32 noundef 39)
          to label %22 unwind label %30

22:                                               ; preds = %21
  %23 = getelementptr inbounds nuw i8, ptr %0, i64 8
  %24 = invoke noundef nonnull align 8 dereferenceable(112) ptr @_ZN2mu11ParserErroraSERKS0_(ptr noundef nonnull align 8 dereferenceable(112) %23, ptr noundef nonnull align 8 dereferenceable(112) %4)
          to label %25 unwind label %32

25:                                               ; preds = %22
  call void @_ZN2mu11ParserErrorD1Ev(ptr noundef nonnull align 8 dereferenceable(112) %4) #23
  call void @llvm.lifetime.end.p0(i64 112, ptr nonnull %4) #23
  %26 = getelementptr inbounds nuw i8, ptr %0, i64 128
  store i8 1, ptr %26, align 8, !tbaa !19
  %27 = getelementptr inbounds nuw i8, ptr %0, i64 120
  %28 = load ptr, ptr %27, align 8, !tbaa !20
  %.not = icmp eq ptr %28, null
  br i1 %.not, label %37, label %29

29:                                               ; preds = %25
  invoke void %28(ptr noundef nonnull %0)
          to label %37 unwind label %35

30:                                               ; preds = %21
  %31 = landingpad { ptr, i32 }
          cleanup
  br label %34

32:                                               ; preds = %22
  %33 = landingpad { ptr, i32 }
          cleanup
  call void @_ZN2mu11ParserErrorD1Ev(ptr noundef nonnull align 8 dereferenceable(112) %4) #23
  br label %34

34:                                               ; preds = %32, %30
  %.pn = phi { ptr, i32 } [ %33, %32 ], [ %31, %30 ]
  call void @llvm.lifetime.end.p0(i64 112, ptr nonnull %4) #23
  br label %38

35:                                               ; preds = %29
  %36 = landingpad { ptr, i32 }
          cleanup
  br label %38

37:                                               ; preds = %29, %25
  call void @__cxa_end_catch()
  br label %42

38:                                               ; preds = %35, %34
  %.pn27 = phi { ptr, i32 } [ %36, %35 ], [ %.pn, %34 ]
  invoke void @__cxa_end_catch()
          to label %43 unwind label %44

39:                                               ; preds = %20, %13
  %40 = landingpad { ptr, i32 }
          cleanup
  invoke void @__cxa_end_catch()
          to label %43 unwind label %44

41:                                               ; preds = %20, %16
  tail call void @__cxa_end_catch()
  br label %42

42:                                               ; preds = %3, %41, %37
  ret void

43:                                               ; preds = %39, %38
  %.pn30 = phi { ptr, i32 } [ %.pn27, %38 ], [ %40, %39 ]
  resume { ptr, i32 } %.pn30

44:                                               ; preds = %39, %38
  %45 = landingpad { ptr, i32 }
          catch ptr null
  %46 = extractvalue { ptr, i32 } %45, 0
  call void @__clang_call_terminate(ptr %46) #24
  unreachable
}